; ModuleID = '4/189.c'
source_filename = "4/189.c"
target datalayout = "e-m:e-p270:32:32-p271:32:32-p272:64:64-i64:64-f80:128-n8:16:32:64-S128"
target triple = "x86_64-pc-linux-gnu"

@.str = private unnamed_addr constant [6 x i8] c"%d %d\00", align 1
@.str.1 = private unnamed_addr constant [3 x i8] c"%d\00", align 1
@.str.2 = private unnamed_addr constant [4 x i8] c"%d\0A\00", align 1

; Function Attrs: noinline nounwind uwtable
define dso_local i32 @main() #0 {
  %1 = alloca i32, align 4
  %2 = alloca i32, align 4
  %3 = alloca i32, align 4
  %4 = alloca i32, align 4
  %5 = alloca i32, align 4
  %6 = alloca i32, align 4
  %7 = alloca [100 x [100 x i32]], align 16
  %8 = alloca i32, align 4
  %9 = alloca i32, align 4
  %10 = alloca i32, align 4
  %11 = alloca i32, align 4
  store i32 0, i32* %1, align 4
  store i32 0, i32* %8, align 4
  store i32 0, i32* %9, align 4
  %12 = call i32 (i8*, ...) @__isoc99_scanf(i8* getelementptr inbounds ([6 x i8], [6 x i8]* @.str, i64 0, i64 0), i32* %2, i32* %3)
  store i32 0, i32* %4, align 4
  br label %13

13:                                               ; preds = %34, %0
  %14 = load i32, i32* %4, align 4
  %15 = load i32, i32* %2, align 4
  %16 = icmp slt i32 %14, %15
  br i1 %16, label %17, label %37

17:                                               ; preds = %13
  store i32 0, i32* %5, align 4
  br label %18

18:                                               ; preds = %30, %17
  %19 = load i32, i32* %5, align 4
  %20 = load i32, i32* %3, align 4
  %21 = icmp slt i32 %19, %20
  br i1 %21, label %22, label %33

22:                                               ; preds = %18
  %23 = load i32, i32* %4, align 4
  %24 = sext i32 %23 to i64
  %25 = getelementptr inbounds [100 x [100 x i32]], [100 x [100 x i32]]* %7, i64 0, i64 %24
  %26 = load i32, i32* %5, align 4
  %27 = sext i32 %26 to i64
  %28 = getelementptr inbounds [100 x i32], [100 x i32]* %25, i64 0, i64 %27
  %29 = call i32 (i8*, ...) @__isoc99_scanf(i8* getelementptr inbounds ([3 x i8], [3 x i8]* @.str.1, i64 0, i64 0), i32* %28)
  br label %30

30:                                               ; preds = %22
  %31 = load i32, i32* %5, align 4
  %32 = add nsw i32 %31, 1
  store i32 %32, i32* %5, align 4
  br label %18

33:                                               ; preds = %18
  br label %34

34:                                               ; preds = %33
  %35 = load i32, i32* %4, align 4
  %36 = add nsw i32 %35, 1
  store i32 %36, i32* %4, align 4
  br label %13

37:                                               ; preds = %13
  %38 = load i32, i32* %2, align 4
  %39 = load i32, i32* %3, align 4
  %40 = mul nsw i32 %38, %39
  store i32 %40, i32* %6, align 4
  br label %41

41:                                               ; preds = %94, %37
  %42 = load i32, i32* %6, align 4
  %43 = icmp ne i32 %42, 0
  br i1 %43, label %44, label %95

44:                                               ; preds = %41
  store i32 0, i32* %10, align 4
  br label %45

45:                                               ; preds = %91, %44
  %46 = load i32, i32* %10, align 4
  %47 = load i32, i32* %2, align 4
  %48 = load i32, i32* %3, align 4
  %49 = add nsw i32 %47, %48
  %50 = sub nsw i32 %49, 1
  %51 = icmp slt i32 %46, %50
  br i1 %51, label %52, label %94

52:                                               ; preds = %45
  %53 = load i32, i32* %10, align 4
  %54 = load i32, i32* %3, align 4
  %55 = icmp slt i32 %53, %54
  br i1 %55, label %56, label %58

56:                                               ; preds = %52
  %57 = load i32, i32* %10, align 4
  store i32 %57, i32* %9, align 4
  store i32 0, i32* %8, align 4
  br label %65

58:                                               ; preds = %52
  %59 = load i32, i32* %10, align 4
  %60 = load i32, i32* %3, align 4
  %61 = sub nsw i32 %59, %60
  %62 = add nsw i32 %61, 1
  store i32 %62, i32* %8, align 4
  %63 = load i32, i32* %3, align 4
  %64 = sub nsw i32 %63, 1
  store i32 %64, i32* %9, align 4
  br label %65

65:                                               ; preds = %58, %56
  br label %66

66:                                               ; preds = %88, %65
  %67 = load i32, i32* %8, align 4
  %68 = sext i32 %67 to i64
  %69 = getelementptr inbounds [100 x [100 x i32]], [100 x [100 x i32]]* %7, i64 0, i64 %68
  %70 = load i32, i32* %9, align 4
  %71 = sext i32 %70 to i64
  %72 = getelementptr inbounds [100 x i32], [100 x i32]* %69, i64 0, i64 %71
  %73 = load i32, i32* %72, align 4
  %74 = call i32 (i8*, ...) @printf(i8* getelementptr inbounds ([4 x i8], [4 x i8]* @.str.2, i64 0, i64 0), i32 %73)
  %75 = load i32, i32* %6, align 4
  %76 = add nsw i32 %75, -1
  store i32 %76, i32* %6, align 4
  %77 = load i32, i32* %9, align 4
  %78 = add nsw i32 %77, -1
  store i32 %78, i32* %9, align 4
  %79 = load i32, i32* %8, align 4
  %80 = add nsw i32 %79, 1
  store i32 %80, i32* %8, align 4
  br label %81

81:                                               ; preds = %66
  %82 = load i32, i32* %9, align 4
  %83 = icmp sge i32 %82, 0
  br i1 %83, label %84, label %88

84:                                               ; preds = %81
  %85 = load i32, i32* %8, align 4
  %86 = load i32, i32* %2, align 4
  %87 = icmp slt i32 %85, %86
  br label %88

88:                                               ; preds = %84, %81
  %89 = phi i1 [ false, %81 ], [ %87, %84 ]
  br i1 %89, label %66, label %90

90:                                               ; preds = %88
  br label %91

91:                                               ; preds = %90
  %92 = load i32, i32* %10, align 4
  %93 = add nsw i32 %92, 1
  store i32 %93, i32* %10, align 4
  br label %45

94:                                               ; preds = %45
  br label %41

95:                                               ; preds = %41
  ret i32 0
}

declare dso_local i32 @__isoc99_scanf(i8*, ...) #1

declare dso_local i32 @printf(i8*, ...) #1


!llvm.module.flags = !{!0}
!llvm.ident = !{!1}

!0 = !{i32 1, !"wchar_size", i32 4}
!1 = !{!"clang version 10.0.0-4ubuntu1 "}
