; ModuleID = 'source-C-CXX/3/189.c'
source_filename = "source-C-CXX/3/189.c"
target datalayout = "e-m:e-p270:32:32-p271:32:32-p272:64:64-i64:64-f80:128-n8:16:32:64-S128"
target triple = "x86_64-pc-linux-gnu"

@.str = private unnamed_addr constant [6 x i8] c"%d %d\00", align 1
@.str.1 = private unnamed_addr constant [3 x i8] c"%d\00", align 1
@.str.2 = private unnamed_addr constant [4 x i8] c"%d\0A\00", align 1

; Function Attrs: nofree nounwind sspstrong uwtable
define dso_local i32 @main() local_unnamed_addr #0 {
  %1 = alloca i32, align 4
  %2 = alloca i32, align 4
  %3 = alloca [100 x [100 x i32]], align 16
  %4 = bitcast i32* %1 to i8*
  call void @llvm.lifetime.start.p0i8(i64 4, i8* nonnull %4) #3
  %5 = bitcast i32* %2 to i8*
  call void @llvm.lifetime.start.p0i8(i64 4, i8* nonnull %5) #3
  %6 = bitcast [100 x [100 x i32]]* %3 to i8*
  call void @llvm.lifetime.start.p0i8(i64 40000, i8* nonnull %6) #3
  %7 = call i32 (i8*, ...) @__isoc99_scanf(i8* getelementptr inbounds ([6 x i8], [6 x i8]* @.str, i64 0, i64 0), i32* nonnull %1, i32* nonnull %2)
  %8 = load i32, i32* %1, align 4, !tbaa !5
  %9 = icmp sgt i32 %8, 0
  %10 = load i32, i32* %2, align 4, !tbaa !5
  %11 = icmp sgt i32 %10, 0
  %12 = select i1 %9, i1 %11, i1 false
  br i1 %12, label %13, label %34

13:                                               ; preds = %0, %28
  %14 = phi i32 [ %29, %28 ], [ %8, %0 ]
  %15 = phi i32 [ %30, %28 ], [ %10, %0 ]
  %16 = phi i64 [ %31, %28 ], [ 0, %0 ]
  %17 = icmp sgt i32 %15, 0
  br i1 %17, label %18, label %28

18:                                               ; preds = %13, %18
  %19 = phi i64 [ %22, %18 ], [ 0, %13 ]
  %20 = getelementptr inbounds [100 x [100 x i32]], [100 x [100 x i32]]* %3, i64 0, i64 %16, i64 %19
  %21 = call i32 (i8*, ...) @__isoc99_scanf(i8* getelementptr inbounds ([3 x i8], [3 x i8]* @.str.1, i64 0, i64 0), i32* nonnull %20)
  %22 = add nuw nsw i64 %19, 1
  %23 = load i32, i32* %2, align 4, !tbaa !5
  %24 = sext i32 %23 to i64
  %25 = icmp slt i64 %22, %24
  br i1 %25, label %18, label %26, !llvm.loop !9

26:                                               ; preds = %18
  %27 = load i32, i32* %1, align 4, !tbaa !5
  br label %28

28:                                               ; preds = %26, %13
  %29 = phi i32 [ %27, %26 ], [ %14, %13 ]
  %30 = phi i32 [ %23, %26 ], [ %15, %13 ]
  %31 = add nuw nsw i64 %16, 1
  %32 = sext i32 %29 to i64
  %33 = icmp slt i64 %31, %32
  br i1 %33, label %13, label %34, !llvm.loop !11

34:                                               ; preds = %28, %0
  %35 = phi i32 [ %10, %0 ], [ %30, %28 ]
  %36 = phi i32 [ %8, %0 ], [ %29, %28 ]
  %37 = mul nsw i32 %35, %36
  %38 = icmp eq i32 %37, 0
  br i1 %38, label %83, label %44

39:                                               ; preds = %78, %44
  %40 = phi i32 [ %45, %44 ], [ %79, %78 ]
  %41 = phi i32 [ %46, %44 ], [ %74, %78 ]
  %42 = phi i32 [ %47, %44 ], [ %70, %78 ]
  %43 = icmp eq i32 %42, 0
  br i1 %43, label %83, label %44, !llvm.loop !13

44:                                               ; preds = %34, %39
  %45 = phi i32 [ %40, %39 ], [ %35, %34 ]
  %46 = phi i32 [ %41, %39 ], [ %36, %34 ]
  %47 = phi i32 [ %42, %39 ], [ %37, %34 ]
  %48 = add i32 %45, -1
  %49 = add i32 %48, %46
  %50 = icmp sgt i32 %49, 0
  br i1 %50, label %51, label %39

51:                                               ; preds = %44, %78
  %52 = phi i32 [ %79, %78 ], [ %45, %44 ]
  %53 = phi i32 [ %56, %78 ], [ 0, %44 ]
  %54 = phi i32 [ %70, %78 ], [ %47, %44 ]
  %55 = icmp slt i32 %53, %52
  %56 = add nuw nsw i32 %53, 1
  %57 = sub i32 %56, %52
  %58 = add nsw i32 %52, -1
  %59 = select i1 %55, i32 0, i32 %57
  %60 = select i1 %55, i32 %53, i32 %58
  %61 = sext i32 %59 to i64
  %62 = sext i32 %60 to i64
  br label %63

63:                                               ; preds = %63, %51
  %64 = phi i64 [ %71, %63 ], [ %62, %51 ]
  %65 = phi i64 [ %72, %63 ], [ %61, %51 ]
  %66 = phi i32 [ %70, %63 ], [ %54, %51 ]
  %67 = getelementptr inbounds [100 x [100 x i32]], [100 x [100 x i32]]* %3, i64 0, i64 %65, i64 %64
  %68 = load i32, i32* %67, align 4, !tbaa !5
  %69 = call i32 (i8*, ...) @printf(i8* nonnull dereferenceable(1) getelementptr inbounds ([4 x i8], [4 x i8]* @.str.2, i64 0, i64 0), i32 %68)
  %70 = add nsw i32 %66, -1
  %71 = add nsw i64 %64, -1
  %72 = add nsw i64 %65, 1
  %73 = icmp sgt i64 %64, 0
  %74 = load i32, i32* %1, align 4
  %75 = sext i32 %74 to i64
  %76 = icmp slt i64 %72, %75
  %77 = select i1 %73, i1 %76, i1 false
  br i1 %77, label %63, label %78, !llvm.loop !14

78:                                               ; preds = %63
  %79 = load i32, i32* %2, align 4, !tbaa !5
  %80 = add i32 %79, -1
  %81 = add i32 %80, %74
  %82 = icmp slt i32 %56, %81
  br i1 %82, label %51, label %39, !llvm.loop !15

83:                                               ; preds = %39, %34
  call void @llvm.lifetime.end.p0i8(i64 40000, i8* nonnull %6) #3
  call void @llvm.lifetime.end.p0i8(i64 4, i8* nonnull %5) #3
  call void @llvm.lifetime.end.p0i8(i64 4, i8* nonnull %4) #3
  ret i32 0
}

; Function Attrs: argmemonly mustprogress nofree nosync nounwind willreturn
declare void @llvm.lifetime.start.p0i8(i64 immarg, i8* nocapture) #1

; Function Attrs: nofree nounwind
declare noundef i32 @__isoc99_scanf(i8* nocapture noundef readonly, ...) local_unnamed_addr #2

; Function Attrs: nofree nounwind
declare noundef i32 @printf(i8* nocapture noundef readonly, ...) local_unnamed_addr #2

; Function Attrs: argmemonly mustprogress nofree nosync nounwind willreturn
declare void @llvm.lifetime.end.p0i8(i64 immarg, i8* nocapture) #1


!llvm.module.flags = !{!0, !1, !2, !3}
!llvm.ident = !{!4}

!0 = !{i32 1, !"wchar_size", i32 4}
!1 = !{i32 7, !"PIC Level", i32 2}
!2 = !{i32 7, !"PIE Level", i32 2}
!3 = !{i32 7, !"uwtable", i32 1}
!4 = !{!"clang version 13.0.0"}
!5 = !{!6, !6, i64 0}
!6 = !{!"int", !7, i64 0}
!7 = !{!"omnipotent char", !8, i64 0}
!8 = !{!"Simple C/C++ TBAA"}
!9 = distinct !{!9, !10}
!10 = !{!"llvm.loop.mustprogress"}
!11 = distinct !{!11, !10, !12}
!12 = !{!"llvm.loop.unswitch.partial.disable"}
!13 = distinct !{!13, !10}
!14 = distinct !{!14, !10}
!15 = distinct !{!15, !10}
